target datalayout = "e-m:e-p270:32:32-p271:32:32-p272:64:64-i64:64-i128:128-f80:128-n8:16:32:64-S128"
target triple = "x86_64-pc-linux-gnu"

%struct._e_prefs = type { ptr, i32, %struct.color_t, %struct.color_t, %struct.color_t, %struct.color_t, %struct.color_t, %struct.color_t, %struct.color_t, i8, i32, ptr, i32, %struct.color_t, %struct.color_t, i32, %struct.color_t, %struct.color_t, i32, %struct.color_t, %struct.color_t, %struct.color_t, %struct.color_t, ptr, ptr, i8, i8, i8, i32, i32, i32, ptr, i32, ptr, i8, i8, i8, ptr, ptr, ptr, i32, i32, i32, i32, i8, i32, i32, i32, i32, i32, ptr, i8, i8, i8, i8, i8, ptr, ptr, ptr, ptr, ptr, ptr, ptr, ptr, ptr, i8, i8, i8, i8, i32, i8, i8, i8, ptr, i32, i8, i8, i32, i8, i8, i8, i32, i8, i32, i8, i8, i8, i32, i32, i32, ptr, i8, i8, i8, i8, i8, i8, i32, i32, i8, i8, i8, i8, i32, i32, i32, i32, i8, i8, i32, i8, i8, i32, i32, i8, i8, i8, i32, i8, i8, i8 }
%struct.color_t = type { i16, i16, i16 }
%class.QString = type { %struct.QArrayDataPointer }
%struct.QArrayDataPointer = type { ptr, ptr, i64 }
%class.SupportedProtocolsDialog = type { %class.GeometryStateDialog, ptr, ptr, ptr, ptr, %class.QString }
%class.GeometryStateDialog = type { %class.QDialog, %class.QString, ptr }
%class.QDialog = type { %class.QWidget }
%class.QWidget = type { %class.QObject, %class.QPaintDevice.base, ptr }
%class.QObject = type { ptr, %class.QScopedPointer }
%class.QScopedPointer = type { ptr }
%class.QPaintDevice.base = type <{ ptr, i16 }>

@prefs = external global %struct._e_prefs, align 8

; Function Attrs: mustprogress null_pointer_is_valid sspstrong uwtable
define void @_ZN24SupportedProtocolsDialog29on_searchLineEdit_textChangedERK7QString(ptr noundef align 8 dereferenceable_or_null(128) %0, ptr noundef align 8 dereferenceable(24) %1) #0 align 2 {
  %3 = alloca ptr, align 8
  %4 = alloca ptr, align 8
  store ptr %0, ptr %3, align 8
  store ptr %1, ptr %4, align 8
  %5 = load ptr, ptr %3, align 8
  %6 = load ptr, ptr %4, align 8
  %7 = getelementptr inbounds nuw %class.SupportedProtocolsDialog, ptr %5, i32 0, i32 5
  %8 = call noundef align 8 dereferenceable(24) ptr @_ZN7QStringaSERKS_(ptr noundef align 8 dereferenceable_or_null(24) %7, ptr noundef align 8 dereferenceable(24) %6) #23
  %9 = getelementptr inbounds nuw %class.SupportedProtocolsDialog, ptr %5, i32 0, i32 4
  %10 = load ptr, ptr %9, align 8
  %11 = load i32, ptr getelementptr inbounds nuw (%struct._e_prefs, ptr @prefs, i32 0, i32 89), align 8
  call void @_ZN6QTimer5startEi(ptr noundef align 8 dereferenceable_or_null(16) %10, i32 noundef %11)
  ret void
}