; Function Attrs: mustprogress null_pointer_is_valid sspstrong uwtable
define void @_ZN24SupportedProtocolsDialog29on_searchLineEdit_textChangedERK7QString(ptr noundef align 8 dereferenceable_or_null(128) %0, ptr noundef align 8 dereferenceable(24) %1) local_unnamed_addr #0 align 2 {
  %3 = getelementptr inbounds nuw i8, ptr %0, i64 104
  %4 = tail call noundef align 8 dereferenceable(24) ptr @_ZN7QStringaSERKS_(ptr noundef nonnull align 8 dereferenceable_or_null(24) %3, ptr noundef align 8 dereferenceable(24) %1) #16
  %5 = getelementptr inbounds nuw i8, ptr %0, i64 96
  %6 = load ptr, ptr %5, align 8
  %7 = load i32, ptr getelementptr inbounds nuw (i8, ptr @prefs, i64 416), align 8
  tail call void @_ZN6QTimer5startEi(ptr noundef align 8 dereferenceable_or_null(16) %6, i32 noundef %7)
  ret void
}